target datalayout = "e-m:e-p270:32:32-p271:32:32-p272:64:64-i64:64-i128:128-f80:128-n8:16:32:64-S128"
target triple = "x86_64-pc-linux-gnu"

%struct.__va_list_tag = type { i32, i32, ptr, ptr }

@stderr = external global ptr, align 8
@.str.28 = private unnamed_addr constant [15 x i8] c"\0AWARNING: %s\0A\0A\00", align 1

; Function Attrs: mustprogress nounwind uwtable
define void @_Z11gmx_warningPKcz(ptr noundef %0, ...) #2 {
  %2 = alloca ptr, align 8
  %3 = alloca [1 x %struct.__va_list_tag], align 16
  %4 = alloca [4096 x i8], align 16
  store ptr %0, ptr %2, align 8, !tbaa !24
  call void @llvm.lifetime.start.p0(i64 24, ptr %3) #16
  call void @llvm.lifetime.start.p0(i64 4096, ptr %4) #16
  %5 = getelementptr inbounds [1 x %struct.__va_list_tag], ptr %3, i64 0, i64 0
  call void @llvm.va_start.p0(ptr %5)
  %6 = getelementptr inbounds [4096 x i8], ptr %4, i64 0, i64 0
  %7 = load ptr, ptr %2, align 8, !tbaa !24
  %8 = getelementptr inbounds [1 x %struct.__va_list_tag], ptr %3, i64 0, i64 0
  %9 = call i32 @vsprintf(ptr noundef %6, ptr noundef %7, ptr noundef %8) #16
  %10 = getelementptr inbounds [1 x %struct.__va_list_tag], ptr %3, i64 0, i64 0
  call void @llvm.va_end.p0(ptr %10)
  %11 = load ptr, ptr @stderr, align 8, !tbaa !15
  %12 = getelementptr inbounds [4096 x i8], ptr %4, i64 0, i64 0
  %13 = call i32 (ptr, ptr, ...) @fprintf(ptr noundef %11, ptr noundef @.str.28, ptr noundef %12) #16
  call void @llvm.lifetime.end.p0(i64 4096, ptr %4) #16
  call void @llvm.lifetime.end.p0(i64 24, ptr %3) #16
  ret void
}