; Function Attrs: cold mustprogress nofree nounwind uwtable
define void @_Z11gmx_warningPKcz(ptr noundef readonly captures(none) %0, ...) local_unnamed_addr #14 {
  %2 = alloca [1 x %struct.__va_list_tag], align 16
  %3 = alloca [4096 x i8], align 16
  call void @llvm.lifetime.start.p0(i64 24, ptr nonnull %2) #17
  call void @llvm.lifetime.start.p0(i64 4096, ptr nonnull %3) #17
  call void @llvm.va_start.p0(ptr nonnull %2)
  %4 = call i32 @vsprintf(ptr noundef nonnull %3, ptr noundef %0, ptr noundef nonnull %2) #17
  call void @llvm.va_end.p0(ptr nonnull %2)
  %5 = load ptr, ptr @stderr, align 8, !tbaa !4
  %6 = call i32 (ptr, ptr, ...) @fprintf(ptr noundef %5, ptr noundef nonnull @.str.28, ptr noundef nonnull %3) #22
  call void @llvm.lifetime.end.p0(i64 4096, ptr nonnull %3) #17
  call void @llvm.lifetime.end.p0(i64 24, ptr nonnull %2) #17
  ret void
}